# SymbolsHelper-Confirmed: 5.21.90 amd64 arm64 armhf ppc64el riscv64 s390x
libLayerShellQtInterface.so.5 liblayershellqtinterface5 #MINVER#
* Build-Depends-Package: liblayershellqtinterface-dev
 _ZN12LayerShellQt18QWaylandLayerShell18createLayerSurfaceEPN15QtWaylandClient14QWaylandWindowE@Base 5.21.90
 _ZN12LayerShellQt18QWaylandLayerShellC1EP11wl_registryjj@Base 5.21.90
 _ZN12LayerShellQt18QWaylandLayerShellC2EP11wl_registryjj@Base 5.21.90
 _ZN12LayerShellQt18QWaylandLayerShellD0Ev@Base 5.21.90
 _ZN12LayerShellQt18QWaylandLayerShellD1Ev@Base 5.21.90
 _ZN12LayerShellQt18QWaylandLayerShellD2Ev@Base 5.21.90
 _ZN12LayerShellQt20QWaylandLayerSurface10setMarginsERK8QMargins@Base 5.21.90
 _ZN12LayerShellQt20QWaylandLayerSurface11qt_metacallEN11QMetaObject4CallEiPPv@Base 5.21.90
 _ZN12LayerShellQt20QWaylandLayerSurface11qt_metacastEPKc@Base 5.21.90
 _ZN12LayerShellQt20QWaylandLayerSurface14applyConfigureEv@Base 5.21.90
 _ZN12LayerShellQt20QWaylandLayerSurface16setExclusiveZoneEi@Base 5.21.90
 _ZN12LayerShellQt20QWaylandLayerSurface16staticMetaObjectE@Base 5.21.90
 _ZN12LayerShellQt20QWaylandLayerSurface24setKeyboardInteractivityEj@Base 5.21.90
 _ZN12LayerShellQt20QWaylandLayerSurface28zwlr_layer_surface_v1_closedEv@Base 5.21.90
 _ZN12LayerShellQt20QWaylandLayerSurface31zwlr_layer_surface_v1_configureEjjj@Base 5.21.90
 _ZN12LayerShellQt20QWaylandLayerSurface8setLayerEj@Base 5.21.90
 _ZN12LayerShellQt20QWaylandLayerSurface9setAnchorEj@Base 5.21.90
 _ZN12LayerShellQt20QWaylandLayerSurfaceC1EPNS_18QWaylandLayerShellEPN15QtWaylandClient14QWaylandWindowE@Base 5.21.90
 _ZN12LayerShellQt20QWaylandLayerSurfaceC2EPNS_18QWaylandLayerShellEPN15QtWaylandClient14QWaylandWindowE@Base 5.21.90
 _ZN12LayerShellQt20QWaylandLayerSurfaceD0Ev@Base 5.21.90
 _ZN12LayerShellQt20QWaylandLayerSurfaceD1Ev@Base 5.21.90
 _ZN12LayerShellQt20QWaylandLayerSurfaceD2Ev@Base 5.21.90
 _ZN12LayerShellQt29QWaylandLayerShellIntegration10initializeEPN15QtWaylandClient15QWaylandDisplayE@Base 5.21.90
 _ZN12LayerShellQt29QWaylandLayerShellIntegration13registryLayerEPvP11wl_registryjRK7QStringj@Base 5.21.90
 _ZN12LayerShellQt29QWaylandLayerShellIntegration18createShellSurfaceEPN15QtWaylandClient14QWaylandWindowE@Base 5.21.90
 _ZN12LayerShellQt29QWaylandLayerShellIntegrationC1Ev@Base 5.21.90
 _ZN12LayerShellQt29QWaylandLayerShellIntegrationC2Ev@Base 5.21.90
 _ZN12LayerShellQt29QWaylandLayerShellIntegrationD0Ev@Base 5.21.90
 _ZN12LayerShellQt29QWaylandLayerShellIntegrationD1Ev@Base 5.21.90
 _ZN12LayerShellQt29QWaylandLayerShellIntegrationD2Ev@Base 5.21.90
 _ZN12LayerShellQt5Shell13useLayerShellEv@Base 5.21.90
 _ZN12LayerShellQt6Window10setAnchorsE6QFlagsINS0_6AnchorEE@Base 5.21.90
 _ZN12LayerShellQt6Window10setMarginsERK8QMargins@Base 5.21.90
 _ZN12LayerShellQt6Window11qt_metacallEN11QMetaObject4CallEiPPv@Base 5.21.90
 _ZN12LayerShellQt6Window11qt_metacastEPKc@Base 5.21.90
 _ZN12LayerShellQt6Window16setExclusiveZoneEi@Base 5.21.90
 _ZN12LayerShellQt6Window16staticMetaObjectE@Base 5.21.90
 _ZN12LayerShellQt6Window24setKeyboardInteractivityENS0_21KeyboardInteractivityE@Base 5.21.90
 _ZN12LayerShellQt6Window3getEP7QWindow@Base 5.21.90
 _ZN12LayerShellQt6Window8setLayerENS0_5LayerE@Base 5.21.90
 _ZN12LayerShellQt6Window8setScopeERK7QString@Base 5.21.90
 _ZN12LayerShellQt6WindowC1EP7QWindow@Base 5.21.90
 _ZN12LayerShellQt6WindowC2EP7QWindow@Base 5.21.90
 _ZN12LayerShellQt6WindowD0Ev@Base 5.21.90
 _ZN12LayerShellQt6WindowD1Ev@Base 5.21.90
 _ZN12LayerShellQt6WindowD2Ev@Base 5.21.90
 _ZNK12LayerShellQt20QWaylandLayerSurface10metaObjectEv@Base 5.21.90
 _ZNK12LayerShellQt6Window10metaObjectEv@Base 5.21.90
 _ZNK12LayerShellQt6Window13exclusionZoneEv@Base 5.21.90
 _ZNK12LayerShellQt6Window21keyboardInteractivityEv@Base 5.21.90
 _ZNK12LayerShellQt6Window5layerEv@Base 5.21.90
 _ZNK12LayerShellQt6Window5scopeEv@Base 5.21.90
 _ZNK12LayerShellQt6Window7anchorsEv@Base 5.21.90
 _ZNK12LayerShellQt6Window7marginsEv@Base 5.21.90
 _ZTIN12LayerShellQt18QWaylandLayerShellE@Base 5.21.90
 _ZTIN12LayerShellQt20QWaylandLayerSurfaceE@Base 5.21.90
 _ZTIN12LayerShellQt29QWaylandLayerShellIntegrationE@Base 5.21.90
 _ZTIN12LayerShellQt6WindowE@Base 5.21.90
 _ZTIN15QtWaylandClient24QWaylandShellIntegrationE@Base 5.21.90
 _ZTSN12LayerShellQt18QWaylandLayerShellE@Base 5.21.90
 _ZTSN12LayerShellQt20QWaylandLayerSurfaceE@Base 5.21.90
 _ZTSN12LayerShellQt29QWaylandLayerShellIntegrationE@Base 5.21.90
 _ZTSN12LayerShellQt6WindowE@Base 5.21.90
 _ZTSN15QtWaylandClient24QWaylandShellIntegrationE@Base 5.21.90
 _ZTVN12LayerShellQt18QWaylandLayerShellE@Base 5.21.90
 _ZTVN12LayerShellQt20QWaylandLayerSurfaceE@Base 5.21.90
 _ZTVN12LayerShellQt29QWaylandLayerShellIntegrationE@Base 5.21.90
 _ZTVN12LayerShellQt6WindowE@Base 5.21.90
 (c++)"non-virtual thunk to LayerShellQt::QWaylandLayerSurface::zwlr_layer_surface_v1_closed()@Base" 5.21.90
 (c++)"non-virtual thunk to LayerShellQt::QWaylandLayerSurface::zwlr_layer_surface_v1_configure(unsigned int, unsigned int, unsigned int)@Base" 5.21.90
 (c++)"non-virtual thunk to LayerShellQt::QWaylandLayerSurface::~QWaylandLayerSurface()@Base" 5.21.90
 xdg_popup_interface@Base 5.21.90
 xdg_positioner_interface@Base 5.21.90
 xdg_surface_interface@Base 5.21.90
 xdg_toplevel_interface@Base 5.21.90
 xdg_wm_base_interface@Base 5.21.90
 zwlr_layer_shell_v1_interface@Base 5.21.90
 zwlr_layer_surface_v1_interface@Base 5.21.90
